target datalayout = "e-m:e-p270:32:32-p271:32:32-p272:64:64-i64:64-i128:128-f80:128-n8:16:32:64-S128"
target triple = "x86_64-pc-linux-gnu"

%"class.Ipopt::TaggedObject" = type { %"class.Ipopt::ReferencedObject.base", %"class.Ipopt::Subject", i32, i32 }
%"class.Ipopt::ReferencedObject.base" = type <{ ptr, i32 }>
%"class.Ipopt::Subject" = type { ptr, %"class.std::vector" }
%"class.std::vector" = type { %"struct.std::_Vector_base" }
%"struct.std::_Vector_base" = type { %"struct.std::_Vector_base<Ipopt::Observer *, std::allocator<Ipopt::Observer *>>::_Vector_impl" }
%"struct.std::_Vector_base<Ipopt::Observer *, std::allocator<Ipopt::Observer *>>::_Vector_impl" = type { %"struct.std::_Vector_base<Ipopt::Observer *, std::allocator<Ipopt::Observer *>>::_Vector_impl_data" }
%"struct.std::_Vector_base<Ipopt::Observer *, std::allocator<Ipopt::Observer *>>::_Vector_impl_data" = type { ptr, ptr, ptr }
%"class.Ipopt::SmartPtr" = type { ptr }
%"class.Ipopt::DenseGenMatrix" = type { %"class.Ipopt::Matrix.base", ptr, ptr, i8, i32, ptr }
%"class.Ipopt::Matrix.base" = type <{ %"class.Ipopt::TaggedObject", %"class.Ipopt::SmartPtr", i32, i8 }>
%"class.Ipopt::SymMatrix" = type { %"class.Ipopt::Matrix.base", ptr }
%"class.Ipopt::DenseSymMatrix" = type <{ %"class.Ipopt::SymMatrix", ptr, ptr, i8, [7 x i8] }>
%"class.Ipopt::MatrixSpace" = type { %"class.Ipopt::ReferencedObject.base", i32, i32, [4 x i8] }

; Function Attrs: mustprogress nounwind uwtable
define linkonce_odr noundef i32 @_ZNK5Ipopt11MatrixSpace5NRowsEv(ptr noundef nonnull align 8 dereferenceable(20) %0) #0 comdat align 2 {
  %2 = alloca ptr, align 8
  store ptr %0, ptr %2, align 8, !tbaa !37
  %3 = load ptr, ptr %2, align 8
  %4 = getelementptr inbounds nuw %"class.Ipopt::MatrixSpace", ptr %3, i32 0, i32 1
  %5 = load i32, ptr %4, align 4, !tbaa !102
  ret i32 %5
}

; Function Attrs: mustprogress nounwind uwtable
define linkonce_odr noundef i32 @_ZNK5Ipopt14SymMatrixSpace3DimEv(ptr noundef nonnull align 8 dereferenceable(20) %0) #0 comdat align 2 {
  %2 = alloca ptr, align 8
  store ptr %0, ptr %2, align 8, !tbaa !343
  %3 = load ptr, ptr %2, align 8
  %4 = call noundef i32 @_ZNK5Ipopt11MatrixSpace5NRowsEv(ptr noundef nonnull align 8 dereferenceable(20) %3)
  ret i32 %4
}

; Function Attrs: mustprogress nounwind uwtable
define linkonce_odr noundef ptr @_ZNK5Ipopt14DenseSymMatrix6ValuesEv(ptr noundef nonnull align 8 dereferenceable(97) %0) #0 comdat align 2 {
  %2 = alloca ptr, align 8
  store ptr %0, ptr %2, align 8, !tbaa !71
  %3 = load ptr, ptr %2, align 8
  %4 = getelementptr inbounds nuw %"class.Ipopt::DenseSymMatrix", ptr %3, i32 0, i32 2
  %5 = load ptr, ptr %4, align 8, !tbaa !82
  ret ptr %5
}

; Function Attrs: inlinehint mustprogress uwtable
define linkonce_odr noundef i32 @_ZNK5Ipopt9SymMatrix3DimEv(ptr noundef nonnull align 8 dereferenceable(80) %0) #3 comdat align 2 {
  %2 = alloca ptr, align 8
  store ptr %0, ptr %2, align 8, !tbaa !77
  %3 = load ptr, ptr %2, align 8
  %4 = getelementptr inbounds nuw %"class.Ipopt::SymMatrix", ptr %3, i32 0, i32 1
  %5 = load ptr, ptr %4, align 8, !tbaa !79
  %6 = call noundef i32 @_ZNK5Ipopt14SymMatrixSpace3DimEv(ptr noundef nonnull align 8 dereferenceable(20) %5)
  ret i32 %6
}

; Function Attrs: mustprogress uwtable
define noundef zeroext i1 @_ZN5Ipopt14DenseGenMatrix21ComputeCholeskyFactorERKNS_14DenseSymMatrixE(ptr noundef nonnull align 8 dereferenceable(104) %0, ptr noundef nonnull align 8 dereferenceable(97) %1) #2 align 2 {
  %3 = alloca i1, align 1
  %4 = alloca ptr, align 8
  %5 = alloca ptr, align 8
  %6 = alloca i32, align 4
  %7 = alloca ptr, align 8
  %8 = alloca i32, align 4
  %9 = alloca i32, align 4
  %10 = alloca i32, align 4
  %11 = alloca i32, align 4
  %12 = alloca i32, align 4
  %13 = alloca i32, align 4
  store ptr %0, ptr %4, align 8, !tbaa !10
  store ptr %1, ptr %5, align 8, !tbaa !71
  %14 = load ptr, ptr %4, align 8
  call void @llvm.lifetime.start.p0(i64 4, ptr %6) #16
  %15 = load ptr, ptr %5, align 8, !tbaa !71
  %16 = call noundef i32 @_ZNK5Ipopt9SymMatrix3DimEv(ptr noundef nonnull align 8 dereferenceable(80) %15)
  store i32 %16, ptr %6, align 4, !tbaa !42
  call void @_ZN5Ipopt12TaggedObject13ObjectChangedEv(ptr noundef nonnull align 8 dereferenceable(56) %14)
  call void @llvm.lifetime.start.p0(i64 8, ptr %7) #16
  %17 = load ptr, ptr %5, align 8, !tbaa !71
  %18 = call noundef ptr @_ZNK5Ipopt14DenseSymMatrix6ValuesEv(ptr noundef nonnull align 8 dereferenceable(97) %17)
  store ptr %18, ptr %7, align 8, !tbaa !41
  call void @llvm.lifetime.start.p0(i64 4, ptr %8) #16
  store i32 0, ptr %8, align 4, !tbaa !42
  br label %19

19:                                               ; preds = %54, %2
  %20 = load i32, ptr %8, align 4, !tbaa !42
  %21 = load i32, ptr %6, align 4, !tbaa !42
  %22 = icmp slt i32 %20, %21
  br i1 %22, label %24, label %23

23:                                               ; preds = %19
  store i32 2, ptr %9, align 4
  call void @llvm.lifetime.end.p0(i64 4, ptr %8) #16
  br label %57

24:                                               ; preds = %19
  call void @llvm.lifetime.start.p0(i64 4, ptr %10) #16
  %25 = load i32, ptr %8, align 4, !tbaa !42
  store i32 %25, ptr %10, align 4, !tbaa !42
  br label %26

26:                                               ; preds = %50, %24
  %27 = load i32, ptr %10, align 4, !tbaa !42
  %28 = load i32, ptr %6, align 4, !tbaa !42
  %29 = icmp slt i32 %27, %28
  br i1 %29, label %31, label %30

30:                                               ; preds = %26
  store i32 5, ptr %9, align 4
  call void @llvm.lifetime.end.p0(i64 4, ptr %10) #16
  br label %53

31:                                               ; preds = %26
  %32 = load ptr, ptr %7, align 8, !tbaa !41
  %33 = load i32, ptr %10, align 4, !tbaa !42
  %34 = load i32, ptr %8, align 4, !tbaa !42
  %35 = load i32, ptr %6, align 4, !tbaa !42
  %36 = mul nsw i32 %34, %35
  %37 = add nsw i32 %33, %36
  %38 = sext i32 %37 to i64
  %39 = getelementptr inbounds double, ptr %32, i64 %38
  %40 = load double, ptr %39, align 8, !tbaa !43
  %41 = getelementptr inbounds nuw %"class.Ipopt::DenseGenMatrix", ptr %14, i32 0, i32 2
  %42 = load ptr, ptr %41, align 8, !tbaa !33
  %43 = load i32, ptr %10, align 4, !tbaa !42
  %44 = load i32, ptr %8, align 4, !tbaa !42
  %45 = load i32, ptr %6, align 4, !tbaa !42
  %46 = mul nsw i32 %44, %45
  %47 = add nsw i32 %43, %46
  %48 = sext i32 %47 to i64
  %49 = getelementptr inbounds double, ptr %42, i64 %48
  store double %40, ptr %49, align 8, !tbaa !43
  br label %50

50:                                               ; preds = %31
  %51 = load i32, ptr %10, align 4, !tbaa !42
  %52 = add nsw i32 %51, 1
  store i32 %52, ptr %10, align 4, !tbaa !42
  br label %26, !llvm.loop !73

53:                                               ; preds = %30
  br label %54

54:                                               ; preds = %53
  %55 = load i32, ptr %8, align 4, !tbaa !42
  %56 = add nsw i32 %55, 1
  store i32 %56, ptr %8, align 4, !tbaa !42
  br label %19, !llvm.loop !74

57:                                               ; preds = %23
  call void @llvm.lifetime.start.p0(i64 4, ptr %11) #16
  %58 = load i32, ptr %6, align 4, !tbaa !42
  %59 = getelementptr inbounds nuw %"class.Ipopt::DenseGenMatrix", ptr %14, i32 0, i32 2
  %60 = load ptr, ptr %59, align 8, !tbaa !33
  %61 = load i32, ptr %6, align 4, !tbaa !42
  call void @_ZN5Ipopt13IpLapackPotrfEiPdiRi(i32 noundef %58, ptr noundef %60, i32 noundef %61, ptr noundef nonnull align 4 dereferenceable(4) %11)
  %62 = load i32, ptr %11, align 4, !tbaa !42
  %63 = icmp ne i32 %62, 0
  br i1 %63, label %64, label %66

64:                                               ; preds = %57
  %65 = getelementptr inbounds nuw %"class.Ipopt::DenseGenMatrix", ptr %14, i32 0, i32 3
  store i8 0, ptr %65, align 8, !tbaa !34
  store i1 false, ptr %3, align 1
  store i32 1, ptr %9, align 4
  br label %98

66:                                               ; preds = %57
  call void @llvm.lifetime.start.p0(i64 4, ptr %12) #16
  store i32 1, ptr %12, align 4, !tbaa !42
  br label %67

67:                                               ; preds = %92, %66
  %68 = load i32, ptr %12, align 4, !tbaa !42
  %69 = load i32, ptr %6, align 4, !tbaa !42
  %70 = icmp slt i32 %68, %69
  br i1 %70, label %72, label %71

71:                                               ; preds = %67
  store i32 8, ptr %9, align 4
  call void @llvm.lifetime.end.p0(i64 4, ptr %12) #16
  br label %95

72:                                               ; preds = %67
  call void @llvm.lifetime.start.p0(i64 4, ptr %13) #16
  store i32 0, ptr %13, align 4, !tbaa !42
  br label %73

73:                                               ; preds = %88, %72
  %74 = load i32, ptr %13, align 4, !tbaa !42
  %75 = load i32, ptr %12, align 4, !tbaa !42
  %76 = icmp slt i32 %74, %75
  br i1 %76, label %78, label %77

77:                                               ; preds = %73
  store i32 11, ptr %9, align 4
  call void @llvm.lifetime.end.p0(i64 4, ptr %13) #16
  br label %91

78:                                               ; preds = %73
  %79 = getelementptr inbounds nuw %"class.Ipopt::DenseGenMatrix", ptr %14, i32 0, i32 2
  %80 = load ptr, ptr %79, align 8, !tbaa !33
  %81 = load i32, ptr %13, align 4, !tbaa !42
  %82 = load i32, ptr %12, align 4, !tbaa !42
  %83 = load i32, ptr %6, align 4, !tbaa !42
  %84 = mul nsw i32 %82, %83
  %85 = add nsw i32 %81, %84
  %86 = sext i32 %85 to i64
  %87 = getelementptr inbounds double, ptr %80, i64 %86
  store double 0.000000e+00, ptr %87, align 8, !tbaa !43
  br label %88

88:                                               ; preds = %78
  %89 = load i32, ptr %13, align 4, !tbaa !42
  %90 = add nsw i32 %89, 1
  store i32 %90, ptr %13, align 4, !tbaa !42
  br label %73, !llvm.loop !75

91:                                               ; preds = %77
  br label %92

92:                                               ; preds = %91
  %93 = load i32, ptr %12, align 4, !tbaa !42
  %94 = add nsw i32 %93, 1
  store i32 %94, ptr %12, align 4, !tbaa !42
  br label %67, !llvm.loop !76

95:                                               ; preds = %71
  %96 = getelementptr inbounds nuw %"class.Ipopt::DenseGenMatrix", ptr %14, i32 0, i32 4
  store i32 2, ptr %96, align 4, !tbaa !35
  %97 = getelementptr inbounds nuw %"class.Ipopt::DenseGenMatrix", ptr %14, i32 0, i32 3
  store i8 1, ptr %97, align 8, !tbaa !34
  store i1 true, ptr %3, align 1
  store i32 1, ptr %9, align 4
  br label %98

98:                                               ; preds = %95, %64
  call void @llvm.lifetime.end.p0(i64 4, ptr %11) #16
  call void @llvm.lifetime.end.p0(i64 8, ptr %7) #16
  call void @llvm.lifetime.end.p0(i64 4, ptr %6) #16
  %99 = load i1, ptr %3, align 1
  ret i1 %99
}