; Function Attrs: mustprogress uwtable
define noundef zeroext i1 @_ZN5Ipopt14DenseGenMatrix21ComputeCholeskyFactorERKNS_14DenseSymMatrixE(ptr noundef nonnull align 8 dereferenceable(104) %0, ptr noundef nonnull readonly align 8 captures(none) dereferenceable(97) %1) local_unnamed_addr #2 align 2 {
  %3 = alloca i32, align 4
  %4 = getelementptr inbounds nuw i8, ptr %1, i64 72
  %5 = load ptr, ptr %4, align 8, !tbaa !93
  %6 = getelementptr inbounds nuw i8, ptr %5, i64 12
  %7 = load i32, ptr %6, align 4, !tbaa !33
  tail call void @_ZN5Ipopt12TaggedObject13ObjectChangedEv(ptr noundef nonnull align 8 dereferenceable(56) %0)
  %8 = getelementptr inbounds nuw i8, ptr %1, i64 88
  %9 = load ptr, ptr %8, align 8, !tbaa !96
  %10 = icmp sgt i32 %7, 0
  %11 = getelementptr inbounds nuw i8, ptr %0, i64 80
  %12 = load ptr, ptr %11, align 8, !tbaa !34
  br i1 %10, label %.preheader34.lr.ph, label %._crit_edge

.preheader34.lr.ph:                               ; preds = %2
  %13 = zext nneg i32 %7 to i64
  br label %.preheader34

.preheader34:                                     ; preds = %.preheader34.lr.ph, %22
  %indvars.iv = phi i64 [ 0, %.preheader34.lr.ph ], [ %indvars.iv.next, %22 ]
  %14 = mul nuw nsw i64 %indvars.iv, %13
  br label %23

._crit_edge:                                      ; preds = %22, %2
  call void @llvm.lifetime.start.p0(i64 4, ptr nonnull %3) #20
  %15 = getelementptr inbounds nuw i8, ptr %0, i64 80
  call void @_ZN5Ipopt13IpLapackPotrfEiPdiRi(i32 noundef %7, ptr noundef %12, i32 noundef %7, ptr noundef nonnull align 4 dereferenceable(4) %3)
  %16 = load i32, ptr %3, align 4, !tbaa !51
  %.not = icmp eq i32 %16, 0
  br i1 %.not, label %.preheader33, label %33

.preheader33:                                     ; preds = %._crit_edge
  %17 = icmp sgt i32 %7, 1
  br i1 %17, label %.preheader.lr.ph, label %._crit_edge39

.preheader.lr.ph:                                 ; preds = %.preheader33
  %18 = load ptr, ptr %15, align 8, !tbaa !34
  %19 = zext nneg i32 %7 to i64
  %20 = shl nuw nsw i64 %19, 3
  %21 = add nsw i32 %7, -1
  %wide.trip.count50 = zext nneg i32 %21 to i64
  br label %.preheader

22:                                               ; preds = %23
  %indvars.iv.next = add nuw nsw i64 %indvars.iv, 1
  %exitcond46.not = icmp eq i64 %indvars.iv.next, %13
  br i1 %exitcond46.not, label %._crit_edge, label %.preheader34, !llvm.loop !99

23:                                               ; preds = %.preheader34, %23
  %indvars.iv41 = phi i64 [ %indvars.iv, %.preheader34 ], [ %indvars.iv.next42, %23 ]
  %24 = add nuw nsw i64 %indvars.iv41, %14
  %25 = getelementptr inbounds nuw double, ptr %9, i64 %24
  %26 = load double, ptr %25, align 8, !tbaa !47
  %27 = getelementptr inbounds nuw double, ptr %12, i64 %24
  store double %26, ptr %27, align 8, !tbaa !47
  %indvars.iv.next42 = add nuw nsw i64 %indvars.iv41, 1
  %exitcond.not = icmp eq i64 %indvars.iv.next42, %13
  br i1 %exitcond.not, label %22, label %23, !llvm.loop !100

.preheader:                                       ; preds = %.preheader.lr.ph, %.preheader
  %indvar = phi i64 [ 0, %.preheader.lr.ph ], [ %indvar.next, %.preheader ]
  %28 = add nuw i64 %indvar, 1
  %29 = mul i64 %20, %28
  %scevgep = getelementptr i8, ptr %18, i64 %29
  %30 = shl nuw nsw i64 %indvar, 3
  %31 = add nuw nsw i64 %30, 8
  call void @llvm.memset.p0.i64(ptr noundef nonnull align 8 dereferenceable(1) %scevgep, i8 0, i64 %31, i1 false), !tbaa !47
  %indvar.next = add nuw nsw i64 %indvar, 1
  %exitcond51.not = icmp eq i64 %indvar.next, %wide.trip.count50
  br i1 %exitcond51.not, label %._crit_edge39, label %.preheader, !llvm.loop !101

._crit_edge39:                                    ; preds = %.preheader, %.preheader33
  %32 = getelementptr inbounds nuw i8, ptr %0, i64 92
  store i32 2, ptr %32, align 4, !tbaa !36
  br label %33

33:                                               ; preds = %._crit_edge, %._crit_edge39
  %.sink = phi i8 [ 1, %._crit_edge39 ], [ 0, %._crit_edge ]
  %34 = getelementptr inbounds nuw i8, ptr %0, i64 88
  store i8 %.sink, ptr %34, align 8, !tbaa !35
  call void @llvm.lifetime.end.p0(i64 4, ptr nonnull %3) #20
  ret i1 %.not
}